target datalayout = "e-m:e-p270:32:32-p271:32:32-p272:64:64-i64:64-i128:128-f80:128-n8:16:32:64-S128"
target triple = "x86_64-pc-linux-gnu"

%struct._zend_phpdbg_globals = type { [11 x %struct._zend_array], %struct._zend_array, %struct._zend_array, ptr, ptr, %struct.phpdbg_frame_t, i32, ptr, %struct.phpdbg_lexer_data, ptr, %struct.sigaction, i32, i64, %struct.phpdbg_btree, %struct.phpdbg_btree, %struct._zend_array, %struct._zend_array, %struct._zend_array, %struct._zend_array, ptr, ptr, ptr, i8, ptr, ptr, ptr, i64, ptr, %struct._zval_struct, i32, i32, i8, i8, ptr, ptr, ptr, %struct._zend_array, ptr, ptr, ptr, [3 x %struct.anon.8], ptr, %struct.anon.9, i64, [2 x ptr], [3 x ptr], ptr, i8, ptr, ptr, [500 x i8], i32, %struct.phpdbg_signal_safe_mem, ptr, i64, ptr, i64 }
%struct.phpdbg_frame_t = type { i32, ptr, ptr }
%struct.phpdbg_lexer_data = type { i32, ptr, ptr, ptr, ptr, i32 }
%struct.sigaction = type { %union.anon.2, %struct.__sigset_t, i32, ptr }
%union.anon.2 = type { ptr }
%struct.__sigset_t = type { [16 x i64] }
%struct.phpdbg_btree = type { i64, i64, i8, ptr }
%struct._zval_struct = type { %union._zend_value, %union.anon.4, %union.anon.7 }
%union._zend_value = type { i64 }
%union.anon.4 = type { i32 }
%union.anon.7 = type { i32 }
%struct._zend_array = type { %struct._zend_refcounted_h, %union.anon.0, i32, %union.anon.1, i32, i32, i32, i32, i64, ptr }
%struct._zend_refcounted_h = type { i32, %union.anon }
%union.anon = type { i32 }
%union.anon.0 = type { i32 }
%union.anon.1 = type { ptr }
%struct.anon.8 = type { i32 }
%struct.anon.9 = type { i8, i32, i32, ptr, i32 }
%struct.phpdbg_signal_safe_mem = type { ptr, i8, ptr, ptr }
%struct._zend_op_array = type { i8, [3 x i8], i32, ptr, ptr, ptr, i32, i32, ptr, ptr, ptr, ptr, i32, ptr, i32, i32, i32, ptr, ptr, ptr, ptr, ptr, i32, i32, ptr, ptr, ptr, i32, i32, i32, i32, ptr, ptr, [6 x ptr] }
%struct._zend_class_entry = type { i8, ptr, %union.anon.11, i32, i32, i32, i32, ptr, ptr, ptr, %struct._zend_array, %struct._zend_array, %struct._zend_array, ptr, ptr, ptr, ptr, ptr, ptr, ptr, ptr, ptr, ptr, ptr, ptr, ptr, ptr, ptr, ptr, ptr, ptr, ptr, %union.anon.12, ptr, ptr, ptr, ptr, i32, i32, i32, i32, %union.anon.13, ptr, ptr, ptr, ptr, i32, ptr, ptr, %union.anon.14 }
%union.anon.11 = type { ptr }
%union.anon.12 = type { ptr }
%union.anon.13 = type { ptr }
%union.anon.14 = type { %struct.anon.15 }
%struct.anon.15 = type { ptr, i32, i32 }
%struct._zend_string = type { %struct._zend_refcounted_h, i64, i64, [1 x i8] }
%struct.anon.10 = type { i8, [3 x i8], i32, ptr, ptr, ptr, i32, i32, ptr, ptr, ptr, ptr, i32, ptr }

@phpdbg_globals = external global %struct._zend_phpdbg_globals, align 8
@.str.39 = private unnamed_addr constant [39 x i8] c"\0Adynamic def: %i, function name: %.*s\0A\00", align 1
@.str.40 = private unnamed_addr constant [19 x i8] c"\09Internal %s::%s()\00", align 1
@.str.41 = private unnamed_addr constant [15 x i8] c"\09Internal %s()\00", align 1

; Function Attrs: inlinehint nounwind uwtable
define internal void @phpdbg_print_function_helper(ptr noundef %0) #3 {
  %2 = alloca ptr, align 8
  %3 = alloca ptr, align 8
  %4 = alloca i32, align 4
  %5 = alloca ptr, align 8
  store ptr %0, ptr %2, align 8, !tbaa !105
  %6 = load ptr, ptr %2, align 8, !tbaa !105
  %7 = load i8, ptr %6, align 8, !tbaa !100
  %8 = zext i8 %7 to i32
  switch i32 %8, label %46 [
    i32 2, label %9
  ]

9:                                                ; preds = %1
  call void @llvm.lifetime.start.p0(i64 8, ptr %3) #12
  %10 = load ptr, ptr %2, align 8, !tbaa !105
  store ptr %10, ptr %3, align 8, !tbaa !118
  %11 = load ptr, ptr %3, align 8, !tbaa !118
  call void @zend_dump_op_array(ptr noundef %11, i32 noundef 32, ptr noundef null, ptr noundef null)
  call void @llvm.lifetime.start.p0(i64 4, ptr %4) #12
  store i32 0, ptr %4, align 4, !tbaa !137
  br label %12

12:                                               ; preds = %42, %9
  %13 = load i32, ptr %4, align 4, !tbaa !137
  %14 = load ptr, ptr %3, align 8, !tbaa !118
  %15 = getelementptr inbounds nuw %struct._zend_op_array, ptr %14, i32 0, i32 30
  %16 = load i32, ptr %15, align 4, !tbaa !138
  %17 = icmp ult i32 %13, %16
  br i1 %17, label %19, label %18

18:                                               ; preds = %12
  call void @llvm.lifetime.end.p0(i64 4, ptr %4) #12
  br label %45

19:                                               ; preds = %12
  call void @llvm.lifetime.start.p0(i64 8, ptr %5) #12
  %20 = load ptr, ptr %3, align 8, !tbaa !118
  %21 = getelementptr inbounds nuw %struct._zend_op_array, ptr %20, i32 0, i32 32
  %22 = load ptr, ptr %21, align 8, !tbaa !139
  %23 = load i32, ptr %4, align 4, !tbaa !137
  %24 = zext i32 %23 to i64
  %25 = getelementptr inbounds nuw ptr, ptr %22, i64 %24
  %26 = load ptr, ptr %25, align 8, !tbaa !118
  store ptr %26, ptr %5, align 8, !tbaa !118
  %27 = load i32, ptr getelementptr inbounds ([3 x %struct.anon.8], ptr getelementptr inbounds nuw (%struct._zend_phpdbg_globals, ptr @phpdbg_globals, i32 0, i32 40), i64 0, i64 1), align 4, !tbaa !41
  %28 = load i32, ptr %4, align 4, !tbaa !137
  %29 = load ptr, ptr %5, align 8, !tbaa !118
  %30 = getelementptr inbounds nuw %struct._zend_op_array, ptr %29, i32 0, i32 3
  %31 = load ptr, ptr %30, align 8, !tbaa !119
  %32 = getelementptr inbounds nuw %struct._zend_string, ptr %31, i32 0, i32 2
  %33 = load i64, ptr %32, align 8, !tbaa !109
  %34 = trunc i64 %33 to i32
  %35 = load ptr, ptr %5, align 8, !tbaa !118
  %36 = getelementptr inbounds nuw %struct._zend_op_array, ptr %35, i32 0, i32 3
  %37 = load ptr, ptr %36, align 8, !tbaa !119
  %38 = getelementptr inbounds nuw %struct._zend_string, ptr %37, i32 0, i32 3
  %39 = getelementptr inbounds [1 x i8], ptr %38, i64 0, i64 0
  %40 = call i32 (i32, ptr, ...) @phpdbg_out_internal(i32 noundef %27, ptr noundef @.str.39, i32 noundef %28, i32 noundef %34, ptr noundef %39)
  %41 = load ptr, ptr %5, align 8, !tbaa !118
  call void @zend_dump_op_array(ptr noundef %41, i32 noundef 32, ptr noundef null, ptr noundef null)
  call void @llvm.lifetime.end.p0(i64 8, ptr %5) #12
  br label %42

42:                                               ; preds = %19
  %43 = load i32, ptr %4, align 4, !tbaa !137
  %44 = add i32 %43, 1
  store i32 %44, ptr %4, align 4, !tbaa !137
  br label %12

45:                                               ; preds = %18
  call void @llvm.lifetime.end.p0(i64 8, ptr %3) #12
  br label %75

46:                                               ; preds = %1
  %47 = load ptr, ptr %2, align 8, !tbaa !105
  %48 = getelementptr inbounds nuw %struct.anon.10, ptr %47, i32 0, i32 4
  %49 = load ptr, ptr %48, align 8, !tbaa !100
  %50 = icmp ne ptr %49, null
  br i1 %50, label %51, label %66

51:                                               ; preds = %46
  %52 = load i32, ptr getelementptr inbounds ([3 x %struct.anon.8], ptr getelementptr inbounds nuw (%struct._zend_phpdbg_globals, ptr @phpdbg_globals, i32 0, i32 40), i64 0, i64 1), align 4, !tbaa !41
  %53 = load ptr, ptr %2, align 8, !tbaa !105
  %54 = getelementptr inbounds nuw %struct.anon.10, ptr %53, i32 0, i32 4
  %55 = load ptr, ptr %54, align 8, !tbaa !100
  %56 = getelementptr inbounds nuw %struct._zend_class_entry, ptr %55, i32 0, i32 1
  %57 = load ptr, ptr %56, align 8, !tbaa !98
  %58 = getelementptr inbounds nuw %struct._zend_string, ptr %57, i32 0, i32 3
  %59 = getelementptr inbounds [1 x i8], ptr %58, i64 0, i64 0
  %60 = load ptr, ptr %2, align 8, !tbaa !105
  %61 = getelementptr inbounds nuw %struct.anon.10, ptr %60, i32 0, i32 3
  %62 = load ptr, ptr %61, align 8, !tbaa !100
  %63 = getelementptr inbounds nuw %struct._zend_string, ptr %62, i32 0, i32 3
  %64 = getelementptr inbounds [1 x i8], ptr %63, i64 0, i64 0
  %65 = call i32 (i32, i32, ptr, ...) @phpdbg_print(i32 noundef 3, i32 noundef %52, ptr noundef @.str.40, ptr noundef %59, ptr noundef %64)
  br label %74

66:                                               ; preds = %46
  %67 = load i32, ptr getelementptr inbounds ([3 x %struct.anon.8], ptr getelementptr inbounds nuw (%struct._zend_phpdbg_globals, ptr @phpdbg_globals, i32 0, i32 40), i64 0, i64 1), align 4, !tbaa !41
  %68 = load ptr, ptr %2, align 8, !tbaa !105
  %69 = getelementptr inbounds nuw %struct.anon.10, ptr %68, i32 0, i32 3
  %70 = load ptr, ptr %69, align 8, !tbaa !100
  %71 = getelementptr inbounds nuw %struct._zend_string, ptr %70, i32 0, i32 3
  %72 = getelementptr inbounds [1 x i8], ptr %71, i64 0, i64 0
  %73 = call i32 (i32, i32, ptr, ...) @phpdbg_print(i32 noundef 3, i32 noundef %67, ptr noundef @.str.41, ptr noundef %72)
  br label %74

74:                                               ; preds = %66, %51
  br label %75

75:                                               ; preds = %74, %45
  ret void
}