; Function Attrs: inlinehint nounwind uwtable
define internal fastcc void @phpdbg_print_function_helper(ptr noundef %0) unnamed_addr #2 {
  %2 = load i8, ptr %0, align 8, !tbaa !61
  %cond = icmp eq i8 %2, 2
  br i1 %cond, label %3, label %23

3:                                                ; preds = %1
  tail call void @zend_dump_op_array(ptr noundef nonnull %0, i32 noundef 32, ptr noundef null, ptr noundef null) #11
  %4 = getelementptr inbounds nuw i8, ptr %0, i64 188
  %5 = load i32, ptr %4, align 4, !tbaa !132
  %.not17 = icmp eq i32 %5, 0
  br i1 %.not17, label %.loopexit, label %.lr.ph

.lr.ph:                                           ; preds = %3
  %6 = getelementptr inbounds nuw i8, ptr %0, i64 200
  br label %7

7:                                                ; preds = %.lr.ph, %7
  %indvars.iv = phi i64 [ 0, %.lr.ph ], [ %indvars.iv.next, %7 ]
  %8 = load ptr, ptr %6, align 8, !tbaa !133
  %9 = getelementptr inbounds nuw ptr, ptr %8, i64 %indvars.iv
  %10 = load ptr, ptr %9, align 8, !tbaa !134
  %11 = load i32, ptr getelementptr inbounds nuw (i8, ptr @phpdbg_globals, i64 1508), align 4, !tbaa !40
  %12 = getelementptr inbounds nuw i8, ptr %10, i64 8
  %13 = load ptr, ptr %12, align 8, !tbaa !79
  %14 = getelementptr inbounds nuw i8, ptr %13, i64 16
  %15 = load i64, ptr %14, align 8, !tbaa !110
  %16 = trunc i64 %15 to i32
  %17 = getelementptr inbounds nuw i8, ptr %13, i64 24
  %18 = trunc nuw i64 %indvars.iv to i32
  %19 = tail call i32 (i32, ptr, ...) @phpdbg_out_internal(i32 noundef %11, ptr noundef nonnull @.str.39, i32 noundef %18, i32 noundef %16, ptr noundef nonnull %17) #11
  tail call void @zend_dump_op_array(ptr noundef %10, i32 noundef 32, ptr noundef null, ptr noundef null) #11
  %indvars.iv.next = add nuw nsw i64 %indvars.iv, 1
  %20 = load i32, ptr %4, align 4, !tbaa !132
  %21 = zext i32 %20 to i64
  %22 = icmp samesign ult i64 %indvars.iv.next, %21
  br i1 %22, label %7, label %.loopexit

23:                                               ; preds = %1
  %24 = getelementptr inbounds nuw i8, ptr %0, i64 16
  %25 = load ptr, ptr %24, align 8, !tbaa !61
  %.not = icmp eq ptr %25, null
  %26 = load i32, ptr getelementptr inbounds nuw (i8, ptr @phpdbg_globals, i64 1508), align 4, !tbaa !40
  br i1 %.not, label %35, label %27

27:                                               ; preds = %23
  %28 = getelementptr inbounds nuw i8, ptr %25, i64 8
  %29 = load ptr, ptr %28, align 8, !tbaa !101
  %30 = getelementptr inbounds nuw i8, ptr %29, i64 24
  %31 = getelementptr inbounds nuw i8, ptr %0, i64 8
  %32 = load ptr, ptr %31, align 8, !tbaa !61
  %33 = getelementptr inbounds nuw i8, ptr %32, i64 24
  %34 = tail call i32 (i32, i32, ptr, ...) @phpdbg_print(i32 noundef 3, i32 noundef %26, ptr noundef nonnull @.str.40, ptr noundef nonnull %30, ptr noundef nonnull %33) #11
  br label %.loopexit

35:                                               ; preds = %23
  %36 = getelementptr inbounds nuw i8, ptr %0, i64 8
  %37 = load ptr, ptr %36, align 8, !tbaa !61
  %38 = getelementptr inbounds nuw i8, ptr %37, i64 24
  %39 = tail call i32 (i32, i32, ptr, ...) @phpdbg_print(i32 noundef 3, i32 noundef %26, ptr noundef nonnull @.str.41, ptr noundef nonnull %38) #11
  br label %.loopexit

.loopexit:                                        ; preds = %7, %3, %27, %35
  ret void
}